target datalayout = "e-m:e-p270:32:32-p271:32:32-p272:64:64-i64:64-i128:128-f80:128-n8:16:32:64-S128"
target triple = "x86_64-pc-linux-gnu"

%struct.AVFormatContext = type { ptr, ptr, ptr, ptr, ptr, i32, i32, ptr, i32, ptr, i32, ptr, ptr, i64, i64, i64, i32, i32, i32, i64, i64, ptr, i32, i32, ptr, i32, i32, i32, i32, ptr, i64, i32, i32, %struct.AVIOInterruptCB, i32, i32, i32, i32, i64, i32, i32, i32, i32, i32, i32, i32, i32, i32, i32, i32, i32, i64, i32, i32, i32, i32, i32, ptr, ptr, ptr, ptr, i32, ptr, ptr, ptr, ptr, i32, ptr, ptr, i64, ptr, ptr, ptr, i64 }
%struct.AVIOInterruptCB = type { ptr, ptr }
%struct.FormatContextInternal = type { %struct.FFFormatContext, %union.anon }
%struct.FFFormatContext = type { %struct.AVFormatContext, i32, %struct.PacketList, i64, ptr, ptr, i32, ptr, i32 }
%struct.PacketList = type { ptr, ptr }
%union.anon = type { %struct.anon.0 }
%struct.anon.0 = type { %struct.PacketList, i32, %struct.PacketList, i32, i32 }
%struct.anon = type { i32, i32, i32, ptr, i32 }

@.str.4 = private unnamed_addr constant [34 x i8] c"av_interleaved_write_frame FLUSH\0A\00", align 1

; Function Attrs: alwaysinline nounwind uwtable
define internal ptr @ff_fc_internal(ptr noundef %0) #4 {
  %2 = alloca ptr, align 8
  store ptr %0, ptr %2, align 8, !tbaa !14
  %3 = load ptr, ptr %2, align 8, !tbaa !14
  ret ptr %3
}

; Function Attrs: nounwind uwtable
define internal i32 @interleaved_write_packet(ptr noundef %0, ptr noundef %1, i32 noundef %2, i32 noundef %3) #0 {
  %5 = alloca i32, align 4
  %6 = alloca ptr, align 8
  %7 = alloca ptr, align 8
  %8 = alloca i32, align 4
  %9 = alloca i32, align 4
  %10 = alloca ptr, align 8
  %11 = alloca i32, align 4
  %12 = alloca i32, align 4
  store ptr %0, ptr %6, align 8, !tbaa !14
  store ptr %1, ptr %7, align 8, !tbaa !128
  store i32 %2, ptr %8, align 4, !tbaa !16
  store i32 %3, ptr %9, align 4, !tbaa !16
  call void @llvm.lifetime.start.p0(i64 8, ptr %10) #11
  %13 = load ptr, ptr %6, align 8, !tbaa !14
  %14 = call ptr @ff_fc_internal(ptr noundef %13)
  store ptr %14, ptr %10, align 8, !tbaa !41
  br label %15

15:                                               ; preds = %41, %4
  call void @llvm.lifetime.start.p0(i64 4, ptr %11) #11
  %16 = load ptr, ptr %10, align 8, !tbaa !41
  %17 = getelementptr inbounds nuw %struct.FormatContextInternal, ptr %16, i32 0, i32 1
  %18 = getelementptr inbounds nuw %struct.anon, ptr %17, i32 0, i32 3
  %19 = load ptr, ptr %18, align 8, !tbaa !43
  %20 = load ptr, ptr %6, align 8, !tbaa !14
  %21 = load ptr, ptr %7, align 8, !tbaa !128
  %22 = load i32, ptr %8, align 4, !tbaa !16
  %23 = load i32, ptr %9, align 4, !tbaa !16
  %24 = call i32 %19(ptr noundef %20, ptr noundef %21, i32 noundef %22, i32 noundef %23)
  store i32 %24, ptr %11, align 4, !tbaa !16
  %25 = load i32, ptr %11, align 4, !tbaa !16
  %26 = icmp sle i32 %25, 0
  br i1 %26, label %27, label %29

27:                                               ; preds = %15
  %28 = load i32, ptr %11, align 4, !tbaa !16
  store i32 %28, ptr %5, align 4
  store i32 1, ptr %12, align 4
  br label %39

29:                                               ; preds = %15
  store i32 0, ptr %9, align 4, !tbaa !16
  %30 = load ptr, ptr %6, align 8, !tbaa !14
  %31 = load ptr, ptr %7, align 8, !tbaa !128
  %32 = call i32 @write_packet(ptr noundef %30, ptr noundef %31)
  store i32 %32, ptr %11, align 4, !tbaa !16
  %33 = load ptr, ptr %7, align 8, !tbaa !128
  call void @av_packet_unref(ptr noundef %33)
  %34 = load i32, ptr %11, align 4, !tbaa !16
  %35 = icmp slt i32 %34, 0
  br i1 %35, label %36, label %38

36:                                               ; preds = %29
  %37 = load i32, ptr %11, align 4, !tbaa !16
  store i32 %37, ptr %5, align 4
  store i32 1, ptr %12, align 4
  br label %39

38:                                               ; preds = %29
  store i32 0, ptr %12, align 4
  br label %39

39:                                               ; preds = %38, %36, %27
  call void @llvm.lifetime.end.p0(i64 4, ptr %11) #11
  %40 = load i32, ptr %12, align 4
  switch i32 %40, label %42 [
    i32 0, label %41
  ]

41:                                               ; preds = %39
  br label %15

42:                                               ; preds = %39
  call void @llvm.lifetime.end.p0(i64 8, ptr %10) #11
  %43 = load i32, ptr %5, align 4
  ret i32 %43
}

; Function Attrs: alwaysinline nounwind uwtable
define internal ptr @ffformatcontext(ptr noundef %0) #4 {
  %2 = alloca ptr, align 8
  store ptr %0, ptr %2, align 8, !tbaa !14
  %3 = load ptr, ptr %2, align 8, !tbaa !14
  ret ptr %3
}

; Function Attrs: nounwind uwtable
define i32 @av_interleaved_write_frame(ptr noundef %0, ptr noundef %1) #0 {
  %3 = alloca i32, align 4
  %4 = alloca ptr, align 8
  %5 = alloca ptr, align 8
  %6 = alloca i32, align 4
  %7 = alloca i32, align 4
  store ptr %0, ptr %4, align 8, !tbaa !14
  store ptr %1, ptr %5, align 8, !tbaa !128
  call void @llvm.lifetime.start.p0(i64 4, ptr %6) #11
  %8 = load ptr, ptr %5, align 8, !tbaa !128
  %9 = icmp ne ptr %8, null
  br i1 %9, label %10, label %20

10:                                               ; preds = %2
  %11 = load ptr, ptr %4, align 8, !tbaa !14
  %12 = load ptr, ptr %5, align 8, !tbaa !128
  %13 = call i32 @write_packets_common(ptr noundef %11, ptr noundef %12, i32 noundef 1)
  store i32 %13, ptr %6, align 4, !tbaa !16
  %14 = load i32, ptr %6, align 4, !tbaa !16
  %15 = icmp slt i32 %14, 0
  br i1 %15, label %16, label %18

16:                                               ; preds = %10
  %17 = load ptr, ptr %5, align 8, !tbaa !128
  call void @av_packet_unref(ptr noundef %17)
  br label %18

18:                                               ; preds = %16, %10
  %19 = load i32, ptr %6, align 4, !tbaa !16
  store i32 %19, ptr %3, align 4
  store i32 1, ptr %7, align 4
  br label %28

20:                                               ; preds = %2
  %21 = load ptr, ptr %4, align 8, !tbaa !14
  call void (ptr, i32, ptr, ...) @av_log(ptr noundef %21, i32 noundef 56, ptr noundef @.str.4)
  %22 = load ptr, ptr %4, align 8, !tbaa !14
  %23 = load ptr, ptr %4, align 8, !tbaa !14
  %24 = call ptr @ffformatcontext(ptr noundef %23)
  %25 = getelementptr inbounds nuw %struct.FFFormatContext, ptr %24, i32 0, i32 4
  %26 = load ptr, ptr %25, align 8, !tbaa !162
  %27 = call i32 @interleaved_write_packet(ptr noundef %22, ptr noundef %26, i32 noundef 1, i32 noundef 0)
  store i32 %27, ptr %3, align 4
  store i32 1, ptr %7, align 4
  br label %28

28:                                               ; preds = %20, %18
  call void @llvm.lifetime.end.p0(i64 4, ptr %6) #11
  %29 = load i32, ptr %3, align 4
  ret i32 %29
}