; Function Attrs: nounwind uwtable
define i32 @av_interleaved_write_frame(ptr noundef %0, ptr noundef %1) local_unnamed_addr #0 {
  %.not = icmp eq ptr %1, null
  br i1 %.not, label %7, label %3

3:                                                ; preds = %2
  %4 = tail call fastcc i32 @write_packets_common(ptr noundef %0, ptr noundef nonnull %1, i32 noundef 1)
  %5 = icmp slt i32 %4, 0
  br i1 %5, label %6, label %interleaved_write_packet.exit

6:                                                ; preds = %3
  tail call void @av_packet_unref(ptr noundef nonnull %1) #13
  br label %interleaved_write_packet.exit

7:                                                ; preds = %2
  tail call void (ptr, i32, ptr, ...) @av_log(ptr noundef %0, i32 noundef 56, ptr noundef nonnull @.str.4) #13
  %8 = getelementptr inbounds nuw i8, ptr %0, i64 504
  %9 = load ptr, ptr %8, align 8, !tbaa !142
  %10 = getelementptr inbounds nuw i8, ptr %0, i64 560
  br label %11

11:                                               ; preds = %15, %7
  %12 = load ptr, ptr %10, align 8, !tbaa !89
  %13 = tail call i32 %12(ptr noundef nonnull %0, ptr noundef %9, i32 noundef 1, i32 noundef 0) #13
  %14 = icmp slt i32 %13, 1
  br i1 %14, label %interleaved_write_packet.exit, label %15

15:                                               ; preds = %11
  %16 = tail call fastcc i32 @write_packet(ptr noundef nonnull %0, ptr noundef %9)
  tail call void @av_packet_unref(ptr noundef %9) #13
  %17 = icmp sgt i32 %16, -1
  br i1 %17, label %11, label %interleaved_write_packet.exit

interleaved_write_packet.exit:                    ; preds = %15, %11, %3, %6
  %.0 = phi i32 [ %4, %6 ], [ %4, %3 ], [ %13, %11 ], [ %16, %15 ]
  ret i32 %.0
}